; Function Attrs: mustprogress uwtable
define dso_local void @_ZN3net22QuicCryptoServerStream28FinishSendServerConfigUpdateEbRKNS_22CryptoHandshakeMessageE(ptr noundef nonnull align 8 dereferenceable(1328) %this, i1 noundef zeroext %ok, ptr noundef nonnull align 8 dereferenceable(72) %message) local_unnamed_addr #0 align 2 {
entry:
  %agg.tmp = alloca %"class.base::BasicStringPiece", align 8
  %send_server_config_update_cb_ = getelementptr inbounds i8, ptr %this, i64 1232
  store ptr null, ptr %send_server_config_update_cb_, align 8
  br i1 %ok, label %if.end, label %return

if.end:                                           ; preds = %entry
  %call = tail call noundef nonnull align 8 dereferenceable(25) ptr @_ZNK3net22CryptoHandshakeMessage13GetSerializedEv(ptr noundef nonnull align 8 dereferenceable(72) %message)
  %buffer_.i = getelementptr inbounds i8, ptr %call, i64 8
  %0 = load ptr, ptr %buffer_.i, align 8
  %length_.i = getelementptr inbounds i8, ptr %call, i64 16
  %1 = load i64, ptr %length_.i, align 8
  call void @_ZN4base16BasicStringPieceINSt7__cxx1112basic_stringIcSt11char_traitsIcESaIcEEEEC1EPKcm(ptr noundef nonnull align 8 dereferenceable(16) %agg.tmp, ptr noundef %0, i64 noundef %1)
  %2 = load ptr, ptr %agg.tmp, align 8
  %3 = getelementptr inbounds i8, ptr %agg.tmp, i64 8
  %4 = load i64, ptr %3, align 8
  call void @_ZN3net18ReliableQuicStream17WriteOrBufferDataEN4base16BasicStringPieceINSt7__cxx1112basic_stringIcSt11char_traitsIcESaIcEEEEEbPNS_24QuicAckListenerInterfaceE(ptr noundef nonnull align 8 dereferenceable(377) %this, ptr %2, i64 %4, i1 noundef zeroext false, ptr noundef null)
  %num_server_config_update_messages_sent_ = getelementptr inbounds i8, ptr %this, i64 1240
  %5 = load i32, ptr %num_server_config_update_messages_sent_, align 8
  %inc = add nsw i32 %5, 1
  store i32 %inc, ptr %num_server_config_update_messages_sent_, align 8
  br label %return

return:                                           ; preds = %entry, %if.end
  ret void
}